target datalayout = "e-m:e-p270:32:32-p271:32:32-p272:64:64-i64:64-i128:128-f80:128-n8:16:32:64-S128"
target triple = "x86_64-pc-linux-gnu"

%"class.clang::interp::InterpState" = type { %"class.clang::interp::State.base", %"class.clang::interp::SourceMapper", ptr, ptr, ptr, %"class.clang::interp::DynamicAllocator", ptr, ptr, ptr, ptr, %"class.clang::SourceLocation", ptr, %"class.llvm::SmallVector.6" }
%"class.clang::interp::State.base" = type <{ ptr, i8 }>
%"class.clang::interp::SourceMapper" = type { ptr }
%"class.clang::interp::DynamicAllocator" = type { %"class.llvm::DenseMap", %"class.llvm::BumpPtrAllocatorImpl" }
%"class.llvm::DenseMap" = type <{ ptr, i32, i32, i32, [4 x i8] }>
%"class.llvm::BumpPtrAllocatorImpl" = type { ptr, ptr, %"class.llvm::SmallVector", %"class.llvm::SmallVector.1", i64, i64 }
%"class.llvm::SmallVector" = type { %"class.llvm::SmallVectorImpl", %"struct.llvm::SmallVectorStorage" }
%"class.llvm::SmallVectorImpl" = type { %"class.llvm::SmallVectorTemplateBase" }
%"class.llvm::SmallVectorTemplateBase" = type { %"class.llvm::SmallVectorTemplateCommon" }
%"class.llvm::SmallVectorTemplateCommon" = type { %"class.llvm::SmallVectorBase" }
%"class.llvm::SmallVectorBase" = type { ptr, i32, i32 }
%"struct.llvm::SmallVectorStorage" = type { [32 x i8] }
%"class.llvm::SmallVector.1" = type { %"class.llvm::SmallVectorImpl.2" }
%"class.llvm::SmallVectorImpl.2" = type { %"class.llvm::SmallVectorTemplateBase.3" }
%"class.llvm::SmallVectorTemplateBase.3" = type { %"class.llvm::SmallVectorTemplateCommon.4" }
%"class.llvm::SmallVectorTemplateCommon.4" = type { %"class.llvm::SmallVectorBase" }
%"class.clang::SourceLocation" = type { i32 }
%"class.llvm::SmallVector.6" = type { %"class.llvm::SmallVectorImpl.7", %"struct.llvm::SmallVectorStorage.10" }
%"class.llvm::SmallVectorImpl.7" = type { %"class.llvm::SmallVectorTemplateBase.8" }
%"class.llvm::SmallVectorTemplateBase.8" = type { %"class.llvm::SmallVectorTemplateCommon.9" }
%"class.llvm::SmallVectorTemplateCommon.9" = type { %"class.llvm::SmallVectorBase" }
%"struct.llvm::SmallVectorStorage.10" = type { [48 x i8] }
%"class.clang::interp::InterpFrame" = type { %"class.clang::interp::Frame", ptr, ptr, i32, ptr, %"class.clang::interp::Pointer", %"class.clang::interp::Pointer", %"class.clang::interp::CodePtr", i32, ptr, %"class.std::unique_ptr.38", i64, %"class.llvm::DenseMap.46" }
%"class.clang::interp::Frame" = type { ptr }
%"class.clang::interp::Pointer" = type <{ i64, ptr, ptr, %union.anon, i32, [4 x i8] }>
%union.anon = type { %"struct.clang::interp::BlockPointer", [8 x i8] }
%"struct.clang::interp::BlockPointer" = type { ptr, i32 }
%"class.clang::interp::CodePtr" = type { ptr }
%"class.std::unique_ptr.38" = type { %"struct.std::__uniq_ptr_data.39" }
%"struct.std::__uniq_ptr_data.39" = type { %"class.std::__uniq_ptr_impl.40" }
%"class.std::__uniq_ptr_impl.40" = type { %"class.std::tuple.41" }
%"class.std::tuple.41" = type { %"struct.std::_Tuple_impl.42" }
%"struct.std::_Tuple_impl.42" = type { %"struct.std::_Head_base.45" }
%"struct.std::_Head_base.45" = type { ptr }
%"class.llvm::DenseMap.46" = type <{ ptr, i32, i32, i32, [4 x i8] }>

; Function Attrs: mustprogress nounwind uwtable
define dso_local noundef ptr @_ZN5clang6interp11InterpState15getCurrentFrameEv(ptr noundef nonnull align 8 dereferenceable(280) %0) unnamed_addr #0 align 2 {
  %2 = alloca ptr, align 8
  %3 = alloca ptr, align 8
  store ptr %0, ptr %3, align 8
  %4 = load ptr, ptr %3, align 8
  %5 = getelementptr inbounds nuw %"class.clang::interp::InterpState", ptr %4, i32 0, i32 9
  %6 = load ptr, ptr %5, align 8
  %7 = icmp ne ptr %6, null
  br i1 %7, label %8, label %17

8:                                                ; preds = %1
  %9 = getelementptr inbounds nuw %"class.clang::interp::InterpState", ptr %4, i32 0, i32 9
  %10 = load ptr, ptr %9, align 8
  %11 = getelementptr inbounds nuw %"class.clang::interp::InterpFrame", ptr %10, i32 0, i32 1
  %12 = load ptr, ptr %11, align 8
  %13 = icmp ne ptr %12, null
  br i1 %13, label %14, label %17

14:                                               ; preds = %8
  %15 = getelementptr inbounds nuw %"class.clang::interp::InterpState", ptr %4, i32 0, i32 9
  %16 = load ptr, ptr %15, align 8
  store ptr %16, ptr %2, align 8
  br label %24

17:                                               ; preds = %8, %1
  %18 = getelementptr inbounds nuw %"class.clang::interp::InterpState", ptr %4, i32 0, i32 2
  %19 = load ptr, ptr %18, align 8
  %20 = load ptr, ptr %19, align 8
  %21 = getelementptr inbounds ptr, ptr %20, i64 6
  %22 = load ptr, ptr %21, align 8
  %23 = call noundef ptr %22(ptr noundef nonnull align 8 dereferenceable(9) %19)
  store ptr %23, ptr %2, align 8
  br label %24

24:                                               ; preds = %17, %14
  %25 = load ptr, ptr %2, align 8
  ret ptr %25
}