; Function Attrs: mustprogress nounwind uwtable
define dso_local noundef ptr @_ZN5clang6interp11InterpState15getCurrentFrameEv(ptr nocapture noundef nonnull readonly align 8 dereferenceable(280) %0) unnamed_addr #0 align 2 {
  %2 = getelementptr inbounds nuw i8, ptr %0, i64 192
  %3 = load ptr, ptr %2, align 8
  %.not = icmp eq ptr %3, null
  br i1 %.not, label %7, label %4

4:                                                ; preds = %1
  %5 = getelementptr inbounds nuw i8, ptr %3, i64 8
  %6 = load ptr, ptr %5, align 8
  %.not3 = icmp eq ptr %6, null
  br i1 %.not3, label %7, label %14

7:                                                ; preds = %4, %1
  %8 = getelementptr inbounds nuw i8, ptr %0, i64 24
  %9 = load ptr, ptr %8, align 8
  %10 = load ptr, ptr %9, align 8
  %11 = getelementptr inbounds i8, ptr %10, i64 48
  %12 = load ptr, ptr %11, align 8
  %13 = tail call noundef ptr %12(ptr noundef nonnull align 8 dereferenceable(9) %9) #12
  br label %14

14:                                               ; preds = %4, %7
  %.0 = phi ptr [ %13, %7 ], [ %3, %4 ]
  ret ptr %.0
}